; Function Attrs: mustprogress nofree norecurse nosync nounwind willreturn memory(argmem: readwrite) uwtable
define dso_local noundef i32 @uv_tcp_simultaneous_accepts(ptr noundef captures(none) %0, i32 noundef %1) local_unnamed_addr #6 {
  %.not = icmp eq i32 %1, 0
  %3 = getelementptr inbounds nuw i8, ptr %0, i64 88
  %4 = load i32, ptr %3, align 8, !tbaa !22
  %5 = and i32 %4, -67108865
  %masksel = select i1 %.not, i32 67108864, i32 0
  %.sink = or disjoint i32 %5, %masksel
  store i32 %.sink, ptr %3, align 8, !tbaa !22
  ret i32 0
}